; Function Attrs: nounwind sspstrong uwtable
define dso_local i64 @rb_mod_constants(i32 noundef %0, ptr noundef readonly captures(none) %1, i64 noundef %2) local_unnamed_addr #0 {
  %4 = alloca i32, align 4
  %5 = alloca i32, align 4
  %or.cond.i = icmp ugt i32 %0, 1
  br i1 %or.cond.i, label %6, label %rb_check_arity.exit

6:                                                ; preds = %3
  tail call void @rb_error_arity(i32 noundef %0, i32 noundef 0, i32 noundef 1) #28
  unreachable

rb_check_arity.exit:                              ; preds = %3
  %.not = icmp eq i32 %0, 0
  br i1 %.not, label %.critedge.preheader, label %7

7:                                                ; preds = %rb_check_arity.exit
  %8 = load i64, ptr %1, align 8, !tbaa !14
  %9 = and i64 %8, -5
  %.not11 = icmp eq i64 %9, 0
  br i1 %.not11, label %33, label %.critedge.preheader

.critedge.preheader:                              ; preds = %rb_check_arity.exit, %7
  br label %.critedge

.critedge:                                        ; preds = %.critedge.preheader, %24
  %.07.i = phi ptr [ %.0.i.i, %24 ], [ null, %.critedge.preheader ]
  %.0.i = phi i64 [ %23, %24 ], [ %2, %.critedge.preheader ]
  %.not.i.i = icmp eq ptr %.07.i, null
  br i1 %.not.i.i, label %10, label %12

10:                                               ; preds = %.critedge
  %11 = call ptr @rb_st_init_numtable() #27
  br label %12

12:                                               ; preds = %10, %.critedge
  %.0.i.i = phi ptr [ %.07.i, %.critedge ], [ %11, %10 ]
  %13 = inttoptr i64 %.0.i to ptr
  %14 = getelementptr inbounds nuw i8, ptr %13, i64 40
  %15 = load ptr, ptr %14, align 8, !tbaa !142
  %.not6.i.i = icmp eq ptr %15, null
  br i1 %.not6.i.i, label %rb_mod_const_at.exit.i, label %16

16:                                               ; preds = %12
  call void @llvm.lifetime.start.p0(i64 4, ptr nonnull %5) #27
  %17 = load ptr, ptr @ruby_single_main_ractor, align 8, !tbaa !68
  %.not.i.i.i.i = icmp eq ptr %17, null
  br i1 %.not.i.i.i.i, label %18, label %rb_vm_lock_enter.exit.i.i

18:                                               ; preds = %16
  call void @rb_vm_lock_enter_body(ptr noundef nonnull %5) #27
  %.pre.i.i = load ptr, ptr %14, align 8, !tbaa !142
  br label %rb_vm_lock_enter.exit.i.i

rb_vm_lock_enter.exit.i.i:                        ; preds = %18, %16
  %19 = phi ptr [ %15, %16 ], [ %.pre.i.i, %18 ]
  call void @rb_id_table_foreach(ptr noundef %19, ptr noundef nonnull @sv_i, ptr noundef %.0.i.i) #27
  %20 = load ptr, ptr @ruby_single_main_ractor, align 8, !tbaa !68
  %.not.i.i7.i.i = icmp eq ptr %20, null
  br i1 %.not.i.i7.i.i, label %21, label %rb_vm_lock_leave.exit.i.i

21:                                               ; preds = %rb_vm_lock_enter.exit.i.i
  call void @rb_vm_lock_leave_body(ptr noundef nonnull %5) #27
  br label %rb_vm_lock_leave.exit.i.i

rb_vm_lock_leave.exit.i.i:                        ; preds = %21, %rb_vm_lock_enter.exit.i.i
  call void @llvm.lifetime.end.p0(i64 4, ptr nonnull %5) #27
  br label %rb_mod_const_at.exit.i

rb_mod_const_at.exit.i:                           ; preds = %rb_vm_lock_leave.exit.i.i, %12
  %22 = getelementptr inbounds nuw i8, ptr %13, i64 16
  %23 = load i64, ptr %22, align 8, !tbaa !194
  %.not.i = icmp eq i64 %23, 0
  br i1 %.not.i, label %rb_mod_const_of.exit, label %24

24:                                               ; preds = %rb_mod_const_at.exit.i
  %25 = load i64, ptr @rb_cObject, align 8, !tbaa !14
  %26 = icmp ne i64 %23, %25
  %.not10.i = icmp eq i64 %2, %25
  %or.cond.i6 = or i1 %26, %.not10.i
  br i1 %or.cond.i6, label %.critedge, label %rb_mod_const_of.exit

rb_mod_const_of.exit:                             ; preds = %rb_mod_const_at.exit.i, %24
  %.not.i7 = icmp eq ptr %.0.i.i, null
  br i1 %.not.i7, label %27, label %29

27:                                               ; preds = %rb_mod_const_of.exit
  %28 = call i64 @rb_ary_new_capa(i64 noundef 0) #27
  br label %rb_const_list.exit

29:                                               ; preds = %rb_mod_const_of.exit
  %30 = getelementptr inbounds nuw i8, ptr %.0.i.i, i64 16
  %31 = load i64, ptr %30, align 8, !tbaa !199
  %32 = call i64 @rb_ary_new_capa(i64 noundef %31) #27
  call void @rb_st_foreach_safe(ptr noundef nonnull %.0.i.i, ptr noundef nonnull @list_i, i64 noundef %32) #27
  call void @rb_st_free_table(ptr noundef nonnull %.0.i.i) #27
  br label %rb_const_list.exit

33:                                               ; preds = %7
  %34 = inttoptr i64 %2 to ptr
  %35 = getelementptr inbounds nuw i8, ptr %34, i64 40
  %36 = load ptr, ptr %35, align 8, !tbaa !142
  %.not.i9 = icmp eq ptr %36, null
  br i1 %.not.i9, label %37, label %39

37:                                               ; preds = %33
  %38 = tail call i64 @rb_ary_new_capa(i64 noundef 0) #27
  br label %rb_const_list.exit

39:                                               ; preds = %33
  call void @llvm.lifetime.start.p0(i64 4, ptr nonnull %4) #27
  %40 = load ptr, ptr @ruby_single_main_ractor, align 8, !tbaa !68
  %.not.i.i.i = icmp eq ptr %40, null
  br i1 %.not.i.i.i, label %41, label %rb_vm_lock_enter.exit.i

41:                                               ; preds = %39
  call void @rb_vm_lock_enter_body(ptr noundef nonnull %4) #27
  br label %rb_vm_lock_enter.exit.i

rb_vm_lock_enter.exit.i:                          ; preds = %41, %39
  %42 = call i64 @rb_id_table_size(ptr noundef nonnull %36) #27
  %43 = call i64 @rb_ary_new_capa(i64 noundef %42) #27
  %44 = inttoptr i64 %43 to ptr
  call void @rb_id_table_foreach(ptr noundef nonnull %36, ptr noundef nonnull @rb_local_constants_i, ptr noundef %44) #27
  %45 = load ptr, ptr @ruby_single_main_ractor, align 8, !tbaa !68
  %.not.i.i7.i = icmp eq ptr %45, null
  br i1 %.not.i.i7.i, label %46, label %rb_vm_lock_leave.exit.i

46:                                               ; preds = %rb_vm_lock_enter.exit.i
  call void @rb_vm_lock_leave_body(ptr noundef nonnull %4) #27
  br label %rb_vm_lock_leave.exit.i

rb_vm_lock_leave.exit.i:                          ; preds = %46, %rb_vm_lock_enter.exit.i
  call void @llvm.lifetime.end.p0(i64 4, ptr nonnull %4) #27
  br label %rb_const_list.exit

rb_const_list.exit:                               ; preds = %rb_vm_lock_leave.exit.i, %37, %29, %27
  %.05 = phi i64 [ %32, %29 ], [ %28, %27 ], [ %43, %rb_vm_lock_leave.exit.i ], [ %38, %37 ]
  ret i64 %.05
}